(dp0
S'bike_140'
p1
cnumpy.core.multiarray
scalar
p2
(cnumpy
dtype
p3
(S'f8'
p4
I0
I1
tp5
Rp6
(I3
S'<'
p7
NNNI-1
I-1
I0
tp8
bS'\xe2\xdaA\xfcs\x84B@'
p9
tp10
Rp11
sS'bike_147'
p12
g2
(g6
S'\xf8Pj\xe2\x0c\x84(@'
p13
tp14
Rp15
sS'coal_128'
p16
g2
(g6
S'Lq\xf4\xb7\x1b5E@'
p17
tp18
Rp19
sS'coal_44'
p20
g2
(g6
S'n\x19\x92\xba\xfd\x00F@'
p21
tp22
Rp23
sS'coal_37'
p24
g2
(g6
S'\xb3`T\x8f\x92\x7fG@'
p25
tp26
Rp27
sS'coal_52'
p28
g2
(g6
S'\x0b\x16R\xc0\x98fG@'
p29
tp30
Rp31
sS'bike_79'
p32
g2
(g6
S'J\xb3X\n\xecQB@'
p33
tp34
Rp35
sS'bike_76'
p36
g2
(g6
S'\xe2\x8cn\xc5_\xf59@'
p37
tp38
Rp39
sS'bike_77'
p40
g2
(g6
S'\xe4\x85\x9b.D\x887@'
p41
tp42
Rp43
sS'bike_176'
p44
g2
(g6
S'\x06\xdf\xa9u\xffw@@'
p45
tp46
Rp47
sS'bike_425'
p48
g2
(g6
S'\xa0X\xe9P\xb6\xb52@'
p49
tp50
Rp51
sS'bike_426'
p52
g2
(g6
S'\xc8\xbeH\xc0@\xe5>@'
p53
tp54
Rp55
sS'coal_118'
p56
g2
(g6
S'\xb2r\xfd\xc7\x14EG@'
p57
tp58
Rp59
sS'coal_134'
p60
g2
(g6
S'\xe6\x9f\x01\x80Q\x7fG@'
p61
tp62
Rp63
sS'blocks_341'
p64
g2
(g6
S'\xb7[LH\xab\x0e,@'
p65
tp66
Rp67
sS'bike_49'
p68
g2
(g6
S'\x98\xca\xab\nW\xf0=@'
p69
tp70
Rp71
sS'coal_3'
p72
g2
(g6
S'@\xad\xcac\xf3UG@'
p73
tp74
Rp75
sS'bike_41'
p76
g2
(g6
S'f/Z&\xc56B@'
p77
tp78
Rp79
sS'bike_40'
p80
g2
(g6
S'\xcf\xff\xcc\xdc\x02\xa0:@'
p81
tp82
Rp83
sS'bike_43'
p84
g2
(g6
S'HE\xc6\x08N\x898@'
p85
tp86
Rp87
sS'bike_42'
p88
g2
(g6
S'!_!\x82\x9f}1@'
p89
tp90
Rp91
sS'bike_45'
p92
g2
(g6
S'n\xdd<\x0c\xb8\x99B@'
p93
tp94
Rp95
sS'bike_44'
p96
g2
(g6
S'\xd7@kboA4@'
p97
tp98
Rp99
sS'bike_46'
p100
g2
(g6
S'\xbcC\xcaqQ\xc4;@'
p101
tp102
Rp103
s.