(dp0
S'train_747'
p1
cnumpy.core.multiarray
scalar
p2
(cnumpy
dtype
p3
(S'f8'
p4
I0
I1
tp5
Rp6
(I3
S'<'
p7
NNNI-1
I-1
I0
tp8
bS'\x0c.\xff&\x92\x15$@'
p9
tp10
Rp11
sS'blocks_50'
p12
g2
(g6
S"\x0c\xb1\xcdi!U'@"
p13
tp14
Rp15
sS'train_742'
p16
g11
sS'blocks_16'
p17
g15
sS'blocks_15'
p18
g15
sS'blocks_14'
p19
g15
sS'blocks_13'
p20
g15
sS'blocks_12'
p21
g15
sS'blocks_11'
p22
g15
sS'blocks_10'
p23
g15
sS'blocks_38'
p24
g15
sS'blocks_299'
p25
g15
sS'blocks_897'
p26
g15
sS'blocks_19'
p27
g15
sS'blocks_18'
p28
g15
sS'blocks_311'
p29
g15
sS'blocks_115'
p30
g15
sS'blocks_502'
p31
g15
sS'blocks_355'
p32
g15
sS'blocks_354'
p33
g15
sS'train_607'
p34
g11
sS'blocks_352'
p35
g15
sS'train_257'
p36
g11
sS'train_256'
p37
g11
sS'train_508'
p38
g11
sS'blocks_702'
p39
g15
sS'blocks_177'
p40
g15
sS'blocks_176'
p41
g15
sS'blocks_179'
p42
g15
sS'blocks_178'
p43
g15
sS'blocks_27'
p44
g15
sS'train_657'
p45
g11
sS'blocks_224'
p46
g15
sS'train_323'
p47
g11
sS'bike_172'
p48
g2
(g6
S'h`\x89\xa2r\x144@'
p49
tp50
Rp51
sS'bike_173'
p52
g51
sS'bike_170'
p53
g51
sS'bike_47'
p54
g51
sS'blocks_296'
p55
g15
sS'blocks_62'
p56
g15
sS'blocks_63'
p57
g15
sS'bike_178'
p58
g51
sS'bike_46'
p59
g51
sS'blocks_22'
p60
g15
sS'blocks_23'
p61
g15
sS'blocks_20'
p62
g15
sS'blocks_21'
p63
g15
sS'blocks_26'
p64
g15
sS'blocks_578'
p65
g15
sS'blocks_24'
p66
g15
sS'blocks_414'
p67
g15
sS'blocks_576'
p68
g15
sS'blocks_928'
p69
g15
sS'train_248'
p70
g11
sS'train_322'
p71
g11
sS'blocks_83'
p72
g15
sS'blocks_84'
p73
g15
sS'blocks_85'
p74
g15
sS'blocks_86'
p75
g15
sS'blocks_87'
p76
g15
sS'blocks_88'
p77
g15
sS'train_421'
p78
g11
sS'blocks_615'
p79
g15
sS'blocks_773'
p80
g15
sS'bike_48'
p81
g51
sS'blocks_770'
p82
g15
sS'blocks_247'
p83
g15
sS'bike_41'
p84
g51
sS'bike_40'
p85
g51
sS'bike_43'
p86
g51
sS'bike_42'
p87
g51
sS'bike_45'
p88
g51
sS'bike_44'
p89
g51
sS'blocks_999'
p90
g15
sS'blocks_998'
p91
g15
s.