(dp0
S'coal_149'
p1
cnumpy.core.multiarray
scalar
p2
(cnumpy
dtype
p3
(S'f8'
p4
I0
I1
tp5
Rp6
(I3
S'<'
p7
NNNI-1
I-1
I0
tp8
bS'w\xdc\x02\xc6W!C@'
p9
tp10
Rp11
sS'coal_148'
p12
g11
sS'coal_145'
p13
g11
sS'coal_144'
p14
g11
sS'coal_147'
p15
g11
sS'coal_146'
p16
g11
sS'coal_141'
p17
g11
sS'coal_140'
p18
g11
sS'coal_143'
p19
g11
sS'coal_142'
p20
g11
sS'blocks_16'
p21
g2
(g6
S"\x0c\xb1\xcdi!U'@"
p22
tp23
Rp24
sS'blocks_15'
p25
g24
sS'blocks_14'
p26
g24
sS'blocks_13'
p27
g24
sS'blocks_12'
p28
g24
sS'blocks_11'
p29
g24
sS'blocks_10'
p30
g24
sS'coal_96'
p31
g11
sS'coal_97'
p32
g11
sS'coal_90'
p33
g11
sS'coal_91'
p34
g11
sS'blocks_19'
p35
g24
sS'blocks_18'
p36
g24
sS'blocks_115'
p37
g24
sS'blocks_576'
p38
g24
sS'blocks_355'
p39
g24
sS'blocks_354'
p40
g24
sS'blocks_352'
p41
g24
sS'train_257'
p42
g2
(g6
S'\x0c.\xff&\x92\x15$@'
p43
tp44
Rp45
sS'train_256'
p46
g45
sS'train_657'
p47
g45
sS'train_248'
p48
g45
sS'coal_139'
p49
g11
sS'blocks_578'
p50
g24
sS'coal_131'
p51
g11
sS'coal_133'
p52
g11
sS'coal_134'
p53
g11
sS'coal_135'
p54
g11
sS'coal_136'
p55
g11
sS'coal_137'
p56
g11
sS'train_323'
p57
g45
sS'train_322'
p58
g45
sS'blocks_83'
p59
g24
sS'blocks_84'
p60
g24
sS'blocks_85'
p61
g24
sS'blocks_86'
p62
g24
sS'blocks_87'
p63
g24
sS'blocks_88'
p64
g24
sS'blocks_773'
p65
g24
sS'blocks_770'
p66
g24
sS'coal_98'
p67
g11
sS'blocks_999'
p68
g24
sS'blocks_998'
p69
g24
sS'train_747'
p70
g45
sS'train_742'
p71
g45
sS'coal_129'
p72
g11
sS'coal_128'
p73
g11
sS'coal_121'
p74
g11
sS'coal_120'
p75
g11
sS'coal_127'
p76
g11
sS'coal_125'
p77
g11
sS'coal_124'
p78
g11
sS'blocks_702'
p79
g24
sS'coal_92'
p80
g11
sS'blocks_177'
p81
g24
sS'blocks_176'
p82
g24
sS'blocks_179'
p83
g24
sS'blocks_178'
p84
g24
sS'coal_93'
p85
g11
sS'blocks_296'
p86
g24
sS'blocks_62'
p87
g24
sS'blocks_63'
p88
g24
sS'blocks_414'
p89
g24
sS'bike_178'
p90
g2
(g6
S'h`\x89\xa2r\x144@'
p91
tp92
Rp93
sS'coal_116'
p94
g11
sS'coal_117'
p95
g11
sS'coal_114'
p96
g11
sS'coal_115'
p97
g11
sS'coal_112'
p98
g11
sS'coal_110'
p99
g11
sS'train_421'
p100
g45
sS'train_508'
p101
g45
sS'blocks_50'
p102
g24
sS'train_607'
p103
g45
sS'coal_100'
p104
g11
sS'coal_103'
p105
g11
sS'coal_105'
p106
g11
sS'coal_104'
p107
g11
sS'coal_107'
p108
g11
sS'coal_106'
p109
g11
sS'coal_108'
p110
g11
sS'bike_173'
p111
g93
sS'blocks_897'
p112
g24
sS'blocks_311'
p113
g24
sS'blocks_928'
p114
g24
sS'blocks_247'
p115
g24
sS'coal_165'
p116
g11
sS'coal_161'
p117
g11
sS'blocks_38'
p118
g24
sS'blocks_502'
p119
g24
sS'coal_99'
p120
g11
sS'coal_158'
p121
g11
sS'coal_159'
p122
g11
sS'bike_172'
p123
g93
sS'blocks_299'
p124
g24
sS'bike_170'
p125
g93
sS'coal_152'
p126
g11
sS'coal_153'
p127
g11
sS'coal_150'
p128
g11
sS'coal_151'
p129
g11
sS'coal_156'
p130
g11
sS'coal_157'
p131
g11
sS'coal_154'
p132
g11
sS'coal_155'
p133
g11
sS'blocks_22'
p134
g24
sS'blocks_23'
p135
g24
sS'blocks_20'
p136
g24
sS'blocks_21'
p137
g24
sS'blocks_26'
p138
g24
sS'blocks_27'
p139
g24
sS'blocks_24'
p140
g24
sS'coal_87'
p141
g11
sS'coal_86'
p142
g11
sS'coal_84'
p143
g11
sS'coal_83'
p144
g11
sS'coal_82'
p145
g11
sS'blocks_615'
p146
g24
sS'bike_48'
p147
g93
sS'blocks_224'
p148
g24
sS'bike_41'
p149
g93
sS'bike_40'
p150
g93
sS'bike_43'
p151
g93
sS'bike_42'
p152
g93
sS'bike_45'
p153
g93
sS'bike_44'
p154
g93
sS'bike_47'
p155
g93
sS'bike_46'
p156
g93
s.