(dp0
S'train_204'
p1
cnumpy.core.multiarray
scalar
p2
(cnumpy
dtype
p3
(S'f8'
p4
I0
I1
tp5
Rp6
(I3
S'<'
p7
NNNI-1
I-1
I0
tp8
bS'\xa7R\x06,{\x17$@'
p9
tp10
Rp11
sS'coal_149'
p12
g2
(g6
S'\xd3N\x7f\xa5\x08!C@'
p13
tp14
Rp15
sS'blocks_337'
p16
g2
(g6
S"C\xfb=\xb3\x0fU'@"
p17
tp18
Rp19
sS'coal_147'
p20
g15
sS'train_702'
p21
g11
sS'coal_141'
p22
g15
sS'train_704'
p23
g11
sS'train_540'
p24
g11
sS'coal_116'
p25
g15
sS'coal_129'
p26
g15
sS'coal_102'
p27
g15
sS'coal_105'
p28
g15
sS'coal_99'
p29
g15
sS'coal_106'
p30
g15
sS'coal_109'
p31
g15
sS'coal_95'
p32
g15
sS'coal_121'
p33
g15
sS'train_311'
p34
g11
sS'coal_96'
p35
g15
sS'coal_93'
p36
g15
sS'coal_97'
p37
g15
sS'coal_162'
p38
g15
sS'blocks_332'
p39
g19
sS'blocks_331'
p40
g19
sS'blocks_330'
p41
g19
sS'coal_91'
p42
g15
sS'blocks_154'
p43
g19
sS'blocks_661'
p44
g19
sS'train_397'
p45
g11
sS'blocks_42'
p46
g19
sS'train_705'
p47
g11
sS'coal_150'
p48
g15
sS'coal_151'
p49
g15
sS'coal_156'
p50
g15
sS'blocks_291'
p51
g19
sS'coal_155'
p52
g15
sS'train_41'
p53
g11
sS'train_40'
p54
g11
sS'train_43'
p55
g11
sS'blocks_418'
p56
g19
sS'coal_119'
p57
g15
sS'coal_87'
p58
g15
sS'coal_84'
p59
g15
sS'coal_110'
p60
g15
sS'coal_111'
p61
g15
sS'train_248'
p62
g11
sS'train_249'
p63
g11
sS'blocks_598'
p64
g19
sS'coal_160'
p65
g15
sS'train_241'
p66
g11
sS'train_242'
p67
g11
sS'train_243'
p68
g11
sS'train_244'
p69
g11
sS'blocks_290'
p70
g19
sS'coal_164'
p71
g15
sS'bike_41'
p72
g2
(g6
S'<?]8P\x154@'
p73
tp74
Rp75
sS'coal_163'
p76
g15
sS'blocks_778'
p77
g19
sS'bike_45'
p78
g75
sS'blocks_998'
p79
g19
s.