(dp0
S'bike_176'
p1
cnumpy.core.multiarray
scalar
p2
(cnumpy
dtype
p3
(S'f8'
p4
I0
I1
tp5
Rp6
(I3
S'<'
p7
NNNI-1
I-1
I0
tp8
bS"O\xdb'&\x16\x164@"
p9
tp10
Rp11
sS'bike_177'
p12
g11
sS'bike_174'
p13
g11
sS'bike_175'
p14
g11
sS'bike_172'
p15
g11
sS'bike_170'
p16
g11
sS'bike_41'
p17
g11
sS'bike_40'
p18
g11
sS'bike_43'
p19
g11
sS'bike_42'
p20
g11
sS'bike_45'
p21
g11
sS'bike_44'
p22
g11
sS'bike_47'
p23
g11
sS'bike_46'
p24
g11
s.