(dp0
S'coal_148'
p1
cnumpy.core.multiarray
scalar
p2
(cnumpy
dtype
p3
(S'f8'
p4
I0
I1
tp5
Rp6
(I3
S'<'
p7
NNNI-1
I-1
I0
tp8
bS'\x10D\xa2\xd7\xf1\x7fE@'
p9
tp10
Rp11
sS'bike_301'
p12
g2
(g6
S'\xf4Sh\xc6M\xd2D@'
p13
tp14
Rp15
sS'train_528'
p16
g2
(g6
S'(\xdb\x89\xf8c\xe7!@'
p17
tp18
Rp19
sS'bike_456'
p20
g2
(g6
S'\xf4\xc1\x8b\x08\xe8\xa7 @'
p21
tp22
Rp23
sS'coal_73'
p24
g2
(g6
S'\xf5Z\xa5Z\xd9\x08G@'
p25
tp26
Rp27
sS'coal_70'
p28
g2
(g6
S'\xcd\xf9p\xa0\x13\x87F@'
p29
tp30
Rp31
sS'coal_128'
p32
g2
(g6
S'\xb00\xd1\xa2r\xc3F@'
p33
tp34
Rp35
sS'coal_94'
p36
g2
(g6
S'\x94\x88u\xfdX\xf9D@'
p37
tp38
Rp39
sS'coal_121'
p40
g2
(g6
S'E\xc3\x91V\xb6\x12G@'
p41
tp42
Rp43
sS'train_939'
p44
g2
(g6
S'\xf4\xb4\xc1R\x1eE\x0e@'
p45
tp46
Rp47
sS'bike_361'
p48
g2
(g6
S"?&]8\x9a\xa6'@"
p49
tp50
Rp51
sS'coal_59'
p52
g2
(g6
S'\x88\xbd\x03:\x99\xde\x1b@'
p53
tp54
Rp55
sS'coal_17'
p56
g2
(g6
S'z\xfdKw9\xf65@'
p57
tp58
Rp59
sS'coal_10'
p60
g2
(g6
S'\xb3\x87\xf2\x0e\x88\xd5;@'
p61
tp62
Rp63
sS'train_995'
p64
g2
(g6
S'\x8a\xe8b\x8fV\xd6\x06@'
p65
tp66
Rp67
sS'coal_50'
p68
g2
(g6
S'|\xb1\xcbbV\xdcC@'
p69
tp70
Rp71
sS'coal_54'
p72
g2
(g6
S'l\xb5\xb2\x1fc9G@'
p73
tp74
Rp75
sS'train_415'
p76
g2
(g6
S'\xccc\x0b[N\xa2\t@'
p77
tp78
Rp79
sS'horse_313'
p80
g2
(g6
S'd@\xd0\xf1\x86o\x12@'
p81
tp82
Rp83
sS'train_796'
p84
g2
(g6
S'\xc8r\xf0\xb5\xb5"\x0e@'
p85
tp86
Rp87
sS'train_123'
p88
g2
(g6
S'\xb0\x88\nI\tG\x0e@'
p89
tp90
Rp91
sS'train_799'
p92
g2
(g6
S'n\x0e\xc8j\x84\xd7\n@'
p93
tp94
Rp95
sS'bike_72'
p96
g2
(g6
S'\x19N\xees\x9a\x923@'
p97
tp98
Rp99
sS'bike_73'
p100
g2
(g6
S'`C\xc9[{\\>@'
p101
tp102
Rp103
sS'train_736'
p104
g2
(g6
S'T[\xe8\xd7\x80\x80\x0b@'
p105
tp106
Rp107
sS'train_967'
p108
g2
(g6
S'}\x92.j\xf2\x8e\x18@'
p109
tp110
Rp111
sS'coal_157'
p112
g2
(g6
S'\xc7\xe5\xfe\xafk\xf3F@'
p113
tp114
Rp115
sS'train_906'
p116
g2
(g6
S'.\xcaUX\xf1\x9c\x12@'
p117
tp118
Rp119
sS'bike_464'
p120
g2
(g6
S'm\xf4\x97\xb1\x1e\x0eC@'
p121
tp122
Rp123
sS'coal_116'
p124
g2
(g6
S'\xe7\x1bE\xd3\xde\x1b\x1f@'
p125
tp126
Rp127
sS'coal_136'
p128
g2
(g6
S'\x87\xeb\xa03\xe7vG@'
p129
tp130
Rp131
sS'train_248'
p132
g2
(g6
S'\xf0\x9c\xa5\x9a}K\x11@'
p133
tp134
Rp135
sS'coal_48'
p136
g2
(g6
S"p\xc6'\x86d\xd8E@"
p137
tp138
Rp139
sS'coal_29'
p140
g2
(g6
S'\xb3>\x012\xb3PG@'
p141
tp142
Rp143
sS'bike_29'
p144
g2
(g6
S'\xc8bVx\xaa\xaeF@'
p145
tp146
Rp147
sS'coal_47'
p148
g2
(g6
S'\xbc\x00E?\xe6VG@'
p149
tp150
Rp151
sS'coal_44'
p152
g2
(g6
S'\x8e\xfd\x08\xc6m\xd7E@'
p153
tp154
Rp155
sS'coal_6'
p156
g2
(g6
S'\x95\xd9\xaaK\\hD@'
p157
tp158
Rp159
sS'coal_2'
p160
g2
(g6
S'\xe2\x1eJ\xaa\xfd@$@'
p161
tp162
Rp163
sS'coal_1'
p164
g2
(g6
S'\xd7r-*\x1f\x87E@'
p165
tp166
Rp167
sS'train_647'
p168
g2
(g6
S'\x16\x82.\x82m\xba\x1b@'
p169
tp170
Rp171
sS'train_242'
p172
g2
(g6
S'&X+\x96\xdc\xd0\x18@'
p173
tp174
Rp175
s.